target datalayout = "e-m:e-p270:32:32-p271:32:32-p272:64:64-i64:64-i128:128-f80:128-n8:16:32:64-S128"
target triple = "x86_64-pc-linux-gnu"

%struct.block_writer = type { ptr, ptr, i64, ptr, i32, i32, i16, i32, i32, ptr, i32, i32, %struct.reftable_buf, %struct.reftable_buf, i32 }
%struct.reftable_buf = type { i64, i64, ptr }

; Function Attrs: nounwind uwtable
define dso_local void @block_writer_release(ptr noundef %0) #0 {
  %2 = alloca ptr, align 8
  store ptr %0, ptr %2, align 8, !tbaa !8
  %3 = load ptr, ptr %2, align 8, !tbaa !8
  %4 = getelementptr inbounds nuw %struct.block_writer, ptr %3, i32 0, i32 0
  %5 = load ptr, ptr %4, align 8, !tbaa !29
  %6 = call i32 @deflateEnd(ptr noundef %5)
  br label %7

7:                                                ; preds = %1
  %8 = load ptr, ptr %2, align 8, !tbaa !8
  %9 = getelementptr inbounds nuw %struct.block_writer, ptr %8, i32 0, i32 0
  %10 = load ptr, ptr %9, align 8, !tbaa !29
  call void @reftable_free(ptr noundef %10)
  %11 = load ptr, ptr %2, align 8, !tbaa !8
  %12 = getelementptr inbounds nuw %struct.block_writer, ptr %11, i32 0, i32 0
  store ptr null, ptr %12, align 8, !tbaa !29
  br label %13

13:                                               ; preds = %7
  br label %14

14:                                               ; preds = %13
  %15 = load ptr, ptr %2, align 8, !tbaa !8
  %16 = getelementptr inbounds nuw %struct.block_writer, ptr %15, i32 0, i32 9
  %17 = load ptr, ptr %16, align 8, !tbaa !44
  call void @reftable_free(ptr noundef %17)
  %18 = load ptr, ptr %2, align 8, !tbaa !8
  %19 = getelementptr inbounds nuw %struct.block_writer, ptr %18, i32 0, i32 9
  store ptr null, ptr %19, align 8, !tbaa !44
  br label %20

20:                                               ; preds = %14
  br label %21

21:                                               ; preds = %20
  %22 = load ptr, ptr %2, align 8, !tbaa !8
  %23 = getelementptr inbounds nuw %struct.block_writer, ptr %22, i32 0, i32 1
  %24 = load ptr, ptr %23, align 8, !tbaa !50
  call void @reftable_free(ptr noundef %24)
  %25 = load ptr, ptr %2, align 8, !tbaa !8
  %26 = getelementptr inbounds nuw %struct.block_writer, ptr %25, i32 0, i32 1
  store ptr null, ptr %26, align 8, !tbaa !50
  br label %27

27:                                               ; preds = %21
  %28 = load ptr, ptr %2, align 8, !tbaa !8
  %29 = getelementptr inbounds nuw %struct.block_writer, ptr %28, i32 0, i32 13
  call void @reftable_buf_release(ptr noundef %29)
  %30 = load ptr, ptr %2, align 8, !tbaa !8
  %31 = getelementptr inbounds nuw %struct.block_writer, ptr %30, i32 0, i32 12
  call void @reftable_buf_release(ptr noundef %31)
  ret void
}