; Function Attrs: nounwind uwtable
define dso_local void @block_writer_release(ptr noundef %0) local_unnamed_addr #2 {
  %2 = load ptr, ptr %0, align 8, !tbaa !25
  %3 = tail call i32 @deflateEnd(ptr noundef %2) #11
  %4 = load ptr, ptr %0, align 8, !tbaa !25
  tail call void @reftable_free(ptr noundef %4) #11
  store ptr null, ptr %0, align 8, !tbaa !25
  %5 = getelementptr inbounds nuw i8, ptr %0, i64 56
  %6 = load ptr, ptr %5, align 8, !tbaa !32
  tail call void @reftable_free(ptr noundef %6) #11
  store ptr null, ptr %5, align 8, !tbaa !32
  %7 = getelementptr inbounds nuw i8, ptr %0, i64 8
  %8 = load ptr, ptr %7, align 8, !tbaa !38
  tail call void @reftable_free(ptr noundef %8) #11
  store ptr null, ptr %7, align 8, !tbaa !38
  %9 = getelementptr inbounds nuw i8, ptr %0, i64 96
  tail call void @reftable_buf_release(ptr noundef nonnull %9) #11
  %10 = getelementptr inbounds nuw i8, ptr %0, i64 72
  tail call void @reftable_buf_release(ptr noundef nonnull %10) #11
  ret void
}